target datalayout = "e-m:e-p270:32:32-p271:32:32-p272:64:64-i64:64-i128:128-f80:128-n8:16:32:64-S128"
target triple = "x86_64-pc-linux-gnu"

%union.pthread_mutex_t = type { %struct.__pthread_mutex_s }
%struct.__pthread_mutex_s = type { i32, i32, i32, i32, i32, i16, i16, %struct.__pthread_internal_list }
%struct.__pthread_internal_list = type { ptr, ptr }
%struct.node_features_ops = type { ptr, ptr, ptr, ptr, ptr, ptr, ptr, ptr, ptr, ptr, ptr, ptr, ptr, ptr, ptr, ptr, ptr }
%struct.timeval = type { i64, i64 }

@g_context_lock = internal global %union.pthread_mutex_t zeroinitializer, align 8
@.str.1 = private unnamed_addr constant [29 x i8] c"%s: pthread_mutex_lock(): %m\00", align 1
@g_context_cnt = internal global i32 -1, align 4
@ops = internal global ptr null, align 8
@.str.7 = private unnamed_addr constant [31 x i8] c"%s: pthread_mutex_unlock(): %m\00", align 1
@__func__.node_features_g_node_xlate = private unnamed_addr constant [27 x i8] c"node_features_g_node_xlate\00", align 1

; Function Attrs: nounwind uwtable
define dso_local ptr @node_features_g_node_xlate(ptr noundef %0, ptr noundef %1, ptr noundef %2, i32 noundef %3) #0 {
  %5 = alloca ptr, align 8
  %6 = alloca ptr, align 8
  %7 = alloca ptr, align 8
  %8 = alloca i32, align 4
  %9 = alloca %struct.timeval, align 8
  %10 = alloca %struct.timeval, align 8
  %11 = alloca [20 x i8], align 16
  %12 = alloca i64, align 8
  %13 = alloca ptr, align 8
  %14 = alloca ptr, align 8
  %15 = alloca i32, align 4
  %16 = alloca i32, align 4
  %17 = alloca i32, align 4
  store ptr %0, ptr %5, align 8
  store ptr %1, ptr %6, align 8
  store ptr %2, ptr %7, align 8
  store i32 %3, ptr %8, align 4
  call void @llvm.lifetime.start.p0(i64 16, ptr %9) #7
  call void @llvm.lifetime.start.p0(i64 16, ptr %10) #7
  call void @llvm.lifetime.start.p0(i64 20, ptr %11) #7
  call void @llvm.memset.p0.i64(ptr align 16 %11, i8 0, i64 20, i1 false)
  call void @llvm.lifetime.start.p0(i64 8, ptr %12) #7
  call void @llvm.lifetime.start.p0(i64 8, ptr %13) #7
  store ptr null, ptr %13, align 8
  call void @llvm.lifetime.start.p0(i64 8, ptr %14) #7
  call void @llvm.lifetime.start.p0(i64 4, ptr %15) #7
  %18 = call i32 @gettimeofday(ptr noundef %9, ptr noundef null) #7
  br label %19

19:                                               ; preds = %4
  call void @llvm.lifetime.start.p0(i64 4, ptr %16) #7
  %20 = call i32 @pthread_mutex_lock(ptr noundef @g_context_lock) #7
  store i32 %20, ptr %16, align 4
  %21 = load i32, ptr %16, align 4
  %22 = icmp ne i32 %21, 0
  br i1 %22, label %23, label %26

23:                                               ; preds = %19
  %24 = load i32, ptr %16, align 4
  %25 = call ptr @__errno_location() #8
  store i32 %24, ptr %25, align 4
  call void (ptr, ...) @fatal_abort(ptr noundef @.str.1, ptr noundef @__func__.node_features_g_node_xlate) #9
  unreachable

26:                                               ; preds = %19
  call void @llvm.lifetime.end.p0(i64 4, ptr %16) #7
  br label %27

27:                                               ; preds = %26
  br label %28

28:                                               ; preds = %27
  %29 = load i32, ptr @g_context_cnt, align 4
  %30 = icmp ne i32 %29, 0
  br i1 %30, label %34, label %31

31:                                               ; preds = %28
  %32 = load ptr, ptr %5, align 8
  %33 = call ptr @xstrdup(ptr noundef %32)
  store ptr %33, ptr %13, align 8
  br label %34

34:                                               ; preds = %31, %28
  store i32 0, ptr %15, align 4
  br label %35

35:                                               ; preds = %64, %34
  %36 = load i32, ptr %15, align 4
  %37 = load i32, ptr @g_context_cnt, align 4
  %38 = icmp slt i32 %36, %37
  br i1 %38, label %39, label %67

39:                                               ; preds = %35
  %40 = load ptr, ptr %13, align 8
  %41 = icmp ne ptr %40, null
  br i1 %41, label %42, label %44

42:                                               ; preds = %39
  %43 = load ptr, ptr %13, align 8
  store ptr %43, ptr %14, align 8
  br label %52

44:                                               ; preds = %39
  %45 = load ptr, ptr %6, align 8
  %46 = icmp ne ptr %45, null
  br i1 %46, label %47, label %50

47:                                               ; preds = %44
  %48 = load ptr, ptr %6, align 8
  %49 = call ptr @xstrdup(ptr noundef %48)
  store ptr %49, ptr %14, align 8
  br label %51

50:                                               ; preds = %44
  store ptr null, ptr %14, align 8
  br label %51

51:                                               ; preds = %50, %47
  br label %52

52:                                               ; preds = %51, %42
  %53 = load ptr, ptr @ops, align 8
  %54 = load i32, ptr %15, align 4
  %55 = sext i32 %54 to i64
  %56 = getelementptr inbounds %struct.node_features_ops, ptr %53, i64 %55
  %57 = getelementptr inbounds nuw %struct.node_features_ops, ptr %56, i32 0, i32 12
  %58 = load ptr, ptr %57, align 8
  %59 = load ptr, ptr %5, align 8
  %60 = load ptr, ptr %14, align 8
  %61 = load ptr, ptr %7, align 8
  %62 = load i32, ptr %8, align 4
  %63 = call ptr %58(ptr noundef %59, ptr noundef %60, ptr noundef %61, i32 noundef %62)
  store ptr %63, ptr %13, align 8
  call void @slurm_xfree(ptr noundef %14)
  br label %64

64:                                               ; preds = %52
  %65 = load i32, ptr %15, align 4
  %66 = add nsw i32 %65, 1
  store i32 %66, ptr %15, align 4
  br label %35, !llvm.loop !26

67:                                               ; preds = %35
  br label %68

68:                                               ; preds = %67
  call void @llvm.lifetime.start.p0(i64 4, ptr %17) #7
  %69 = call i32 @pthread_mutex_unlock(ptr noundef @g_context_lock) #7
  store i32 %69, ptr %17, align 4
  %70 = load i32, ptr %17, align 4
  %71 = icmp ne i32 %70, 0
  br i1 %71, label %72, label %75

72:                                               ; preds = %68
  %73 = load i32, ptr %17, align 4
  %74 = call ptr @__errno_location() #8
  store i32 %73, ptr %74, align 4
  call void (ptr, ...) @fatal_abort(ptr noundef @.str.7, ptr noundef @__func__.node_features_g_node_xlate) #9
  unreachable

75:                                               ; preds = %68
  call void @llvm.lifetime.end.p0(i64 4, ptr %17) #7
  br label %76

76:                                               ; preds = %75
  br label %77

77:                                               ; preds = %76
  br label %78

78:                                               ; preds = %77
  %79 = call i32 @gettimeofday(ptr noundef %10, ptr noundef null) #7
  %80 = getelementptr inbounds [20 x i8], ptr %11, i64 0, i64 0
  call void @slurm_diff_tv_str(ptr noundef %9, ptr noundef %10, ptr noundef %80, i32 noundef 20, ptr noundef @__func__.node_features_g_node_xlate, i64 noundef 0, ptr noundef %12)
  br label %81

81:                                               ; preds = %78
  br label %82

82:                                               ; preds = %81
  %83 = load ptr, ptr %13, align 8
  call void @llvm.lifetime.end.p0(i64 4, ptr %15) #7
  call void @llvm.lifetime.end.p0(i64 8, ptr %14) #7
  call void @llvm.lifetime.end.p0(i64 8, ptr %13) #7
  call void @llvm.lifetime.end.p0(i64 8, ptr %12) #7
  call void @llvm.lifetime.end.p0(i64 20, ptr %11) #7
  call void @llvm.lifetime.end.p0(i64 16, ptr %10) #7
  call void @llvm.lifetime.end.p0(i64 16, ptr %9) #7
  ret ptr %83
}