; Function Attrs: nounwind uwtable
define dso_local ptr @node_features_g_node_xlate(ptr noundef %0, ptr noundef %1, ptr noundef %2, i32 noundef %3) local_unnamed_addr #0 {
  %5 = alloca %struct.timeval, align 8
  %6 = alloca %struct.timeval, align 8
  %7 = alloca [20 x i8], align 16
  %8 = alloca i64, align 8
  %9 = alloca ptr, align 8
  call void @llvm.lifetime.start.p0(i64 16, ptr nonnull %5) #9
  call void @llvm.lifetime.start.p0(i64 16, ptr nonnull %6) #9
  call void @llvm.lifetime.start.p0(i64 20, ptr nonnull %7) #9
  call void @llvm.memset.p0.i64(ptr noundef nonnull align 16 dereferenceable(20) %7, i8 0, i64 20, i1 false)
  call void @llvm.lifetime.start.p0(i64 8, ptr nonnull %8) #9
  call void @llvm.lifetime.start.p0(i64 8, ptr nonnull %9) #9
  %10 = call i32 @gettimeofday(ptr noundef nonnull %5, ptr noundef null) #9
  %11 = tail call i32 @pthread_mutex_lock(ptr noundef nonnull @g_context_lock) #9
  %.not = icmp eq i32 %11, 0
  br i1 %.not, label %14, label %12

12:                                               ; preds = %4
  %13 = tail call ptr @__errno_location() #10
  store i32 %11, ptr %13, align 4
  tail call void (ptr, ...) @fatal_abort(ptr noundef nonnull @.str.1, ptr noundef nonnull @__func__.node_features_g_node_xlate) #11
  unreachable

14:                                               ; preds = %4
  %15 = load i32, ptr @g_context_cnt, align 4
  %.not19 = icmp eq i32 %15, 0
  br i1 %.not19, label %16, label %18

16:                                               ; preds = %14
  %17 = tail call ptr @xstrdup(ptr noundef %0) #9
  %.pre = load i32, ptr @g_context_cnt, align 4
  br label %18

18:                                               ; preds = %16, %14
  %19 = phi i32 [ %15, %14 ], [ %.pre, %16 ]
  %.0 = phi ptr [ null, %14 ], [ %17, %16 ]
  %20 = icmp sgt i32 %19, 0
  br i1 %20, label %.lr.ph, label %._crit_edge

.lr.ph:                                           ; preds = %18
  %.not22 = icmp eq ptr %1, null
  br i1 %.not22, label %.lr.ph.split.us, label %.lr.ph.split

.lr.ph.split.us:                                  ; preds = %.lr.ph, %.lr.ph.split.us
  %indvars.iv29 = phi i64 [ %indvars.iv.next30, %.lr.ph.split.us ], [ 0, %.lr.ph ]
  %.124.us = phi ptr [ %24, %.lr.ph.split.us ], [ %.0, %.lr.ph ]
  store ptr %.124.us, ptr %9, align 8
  %21 = load ptr, ptr @ops, align 8
  %22 = getelementptr inbounds nuw %struct.node_features_ops, ptr %21, i64 %indvars.iv29, i32 12
  %23 = load ptr, ptr %22, align 8
  %24 = call ptr %23(ptr noundef %0, ptr noundef %.124.us, ptr noundef %2, i32 noundef %3) #9
  call void @slurm_xfree(ptr noundef nonnull %9) #9
  %indvars.iv.next30 = add nuw nsw i64 %indvars.iv29, 1
  %25 = load i32, ptr @g_context_cnt, align 4
  %26 = sext i32 %25 to i64
  %27 = icmp slt i64 %indvars.iv.next30, %26
  br i1 %27, label %.lr.ph.split.us, label %._crit_edge, !llvm.loop !24

.lr.ph.split:                                     ; preds = %.lr.ph, %30
  %indvars.iv = phi i64 [ %indvars.iv.next, %30 ], [ 0, %.lr.ph ]
  %.124 = phi ptr [ %34, %30 ], [ %.0, %.lr.ph ]
  %.not21 = icmp eq ptr %.124, null
  br i1 %.not21, label %28, label %30

28:                                               ; preds = %.lr.ph.split
  %29 = call ptr @xstrdup(ptr noundef nonnull %1) #9
  br label %30

30:                                               ; preds = %.lr.ph.split, %28
  %storemerge = phi ptr [ %29, %28 ], [ %.124, %.lr.ph.split ]
  store ptr %storemerge, ptr %9, align 8
  %31 = load ptr, ptr @ops, align 8
  %32 = getelementptr inbounds nuw %struct.node_features_ops, ptr %31, i64 %indvars.iv, i32 12
  %33 = load ptr, ptr %32, align 8
  %34 = call ptr %33(ptr noundef %0, ptr noundef %storemerge, ptr noundef %2, i32 noundef %3) #9
  call void @slurm_xfree(ptr noundef nonnull %9) #9
  %indvars.iv.next = add nuw nsw i64 %indvars.iv, 1
  %35 = load i32, ptr @g_context_cnt, align 4
  %36 = sext i32 %35 to i64
  %37 = icmp slt i64 %indvars.iv.next, %36
  br i1 %37, label %.lr.ph.split, label %._crit_edge, !llvm.loop !24

._crit_edge:                                      ; preds = %30, %.lr.ph.split.us, %18
  %.1.lcssa = phi ptr [ %.0, %18 ], [ %24, %.lr.ph.split.us ], [ %34, %30 ]
  %38 = call i32 @pthread_mutex_unlock(ptr noundef nonnull @g_context_lock) #9
  %.not20 = icmp eq i32 %38, 0
  br i1 %.not20, label %41, label %39

39:                                               ; preds = %._crit_edge
  %40 = tail call ptr @__errno_location() #10
  store i32 %38, ptr %40, align 4
  call void (ptr, ...) @fatal_abort(ptr noundef nonnull @.str.7, ptr noundef nonnull @__func__.node_features_g_node_xlate) #11
  unreachable

41:                                               ; preds = %._crit_edge
  %42 = call i32 @gettimeofday(ptr noundef nonnull %6, ptr noundef null) #9
  call void @slurm_diff_tv_str(ptr noundef nonnull %5, ptr noundef nonnull %6, ptr noundef nonnull %7, i32 noundef 20, ptr noundef nonnull @__func__.node_features_g_node_xlate, i64 noundef 0, ptr noundef nonnull %8) #9
  call void @llvm.lifetime.end.p0(i64 8, ptr nonnull %9) #9
  call void @llvm.lifetime.end.p0(i64 8, ptr nonnull %8) #9
  call void @llvm.lifetime.end.p0(i64 20, ptr nonnull %7) #9
  call void @llvm.lifetime.end.p0(i64 16, ptr nonnull %6) #9
  call void @llvm.lifetime.end.p0(i64 16, ptr nonnull %5) #9
  ret ptr %.1.lcssa
}